; Function Attrs: mustprogress nounwind uwtable
define hidden void @_ZN11opencv_onnx9TypeProto11clear_valueEv(ptr noundef nonnull align 8 captures(none) dereferenceable(48) %0) local_unnamed_addr #7 align 2 {
  %2 = getelementptr inbounds nuw i8, ptr %0, i64 40
  %3 = load i32, ptr %2, align 8, !tbaa !51
  %cond = icmp eq i32 %3, 1
  br i1 %cond, label %4, label %18

4:                                                ; preds = %1
  %5 = getelementptr inbounds nuw i8, ptr %0, i64 8
  %6 = load i64, ptr %5, align 8, !tbaa !33
  %7 = and i64 %6, 1
  %.not.i = icmp eq i64 %7, 0
  %8 = and i64 %6, -4
  %9 = inttoptr i64 %8 to ptr
  br i1 %.not.i, label %_ZNK6google8protobuf11MessageLite21GetArenaForAllocationEv.exit, label %10, !prof !43

10:                                               ; preds = %4
  %11 = load ptr, ptr %9, align 8, !tbaa !44
  br label %_ZNK6google8protobuf11MessageLite21GetArenaForAllocationEv.exit

_ZNK6google8protobuf11MessageLite21GetArenaForAllocationEv.exit: ; preds = %4, %10
  %.0.i.i = phi ptr [ %11, %10 ], [ %9, %4 ]
  %12 = icmp eq ptr %.0.i.i, null
  br i1 %12, label %13, label %18

13:                                               ; preds = %_ZNK6google8protobuf11MessageLite21GetArenaForAllocationEv.exit
  %14 = getelementptr inbounds nuw i8, ptr %0, i64 32
  %15 = load ptr, ptr %14, align 8, !tbaa !46
  %16 = icmp eq ptr %15, null
  br i1 %16, label %18, label %17

17:                                               ; preds = %13
  tail call void @_ZN11opencv_onnx16TypeProto_TensorD2Ev(ptr noundef nonnull align 8 dereferenceable(40) %15) #22
  tail call void @_ZdlPv(ptr noundef nonnull %15) #23
  br label %18

18:                                               ; preds = %1, %_ZNK6google8protobuf11MessageLite21GetArenaForAllocationEv.exit, %17, %13
  store i32 0, ptr %2, align 8, !tbaa !51
  ret void
}